	.section	__TEXT,__text,regular,pure_instructions
	.build_version macos, 15, 0	sdk_version 15, 5
	.globl	_main                           ; -- Begin function main
	.p2align	2
_main:                                  ; @main
	.cfi_startproc
; %bb.0:
	sub	sp, sp, #32
	stp	x29, x30, [sp, #16]             ; 16-byte Folded Spill
	add	x29, sp, #16
	.cfi_def_cfa w29, 16
	.cfi_offset w30, -8
	.cfi_offset w29, -16
	adrp	x0, __ZNSt3__14coutE@GOTPAGE
	ldr	x0, [x0, __ZNSt3__14coutE@GOTPAGEOFF]
	str	x0, [sp]                        ; 8-byte Folded Spill
	adrp	x1, l_.str@PAGE
	add	x1, x1, l_.str@PAGEOFF
	bl	__ZNSt3__1lsB8ne190102INS_11char_traitsIcEEEERNS_13basic_ostreamIcT_EES6_PKc
	adrp	x0, __ZNSt3__13cinE@GOTPAGE
	ldr	x0, [x0, __ZNSt3__13cinE@GOTPAGEOFF]
	sub	x1, x29, #4
	bl	__ZNSt3__113basic_istreamIcNS_11char_traitsIcEEErsERi
	ldr	x0, [sp]                        ; 8-byte Folded Reload
	adrp	x1, l_.str.1@PAGE
	add	x1, x1, l_.str.1@PAGEOFF
	bl	__ZNSt3__1lsB8ne190102INS_11char_traitsIcEEEERNS_13basic_ostreamIcT_EES6_PKc
	ldur	w8, [x29, #-4]
	ldur	w9, [x29, #-4]
	mul	w8, w8, w9
	scvtf	d1, w8
	mov	x8, #10952                      ; =0x2ac8
	movk	x8, #21538, lsl #16
	movk	x8, #8699, lsl #32
	movk	x8, #16393, lsl #48
	fmov	d0, x8
	fmul	d0, d0, d1
	bl	__ZNSt3__113basic_ostreamIcNS_11char_traitsIcEEElsEd
	mov	w0, #0                          ; =0x0
	ldp	x29, x30, [sp, #16]             ; 16-byte Folded Reload
	add	sp, sp, #32
	ret
	.cfi_endproc
                                        ; -- End function
	.private_extern	__ZNSt3__1lsB8ne190102INS_11char_traitsIcEEEERNS_13basic_ostreamIcT_EES6_PKc ; -- Begin function _ZNSt3__1lsB8ne190102INS_11char_traitsIcEEEERNS_13basic_ostreamIcT_EES6_PKc
	.globl	__ZNSt3__1lsB8ne190102INS_11char_traitsIcEEEERNS_13basic_ostreamIcT_EES6_PKc
	.weak_definition	__ZNSt3__1lsB8ne190102INS_11char_traitsIcEEEERNS_13basic_ostreamIcT_EES6_PKc
	.p2align	2
__ZNSt3__1lsB8ne190102INS_11char_traitsIcEEEERNS_13basic_ostreamIcT_EES6_PKc: ; @_ZNSt3__1lsB8ne190102INS_11char_traitsIcEEEERNS_13basic_ostreamIcT_EES6_PKc
	.cfi_startproc
; %bb.0:
	sub	sp, sp, #48
	stp	x29, x30, [sp, #32]             ; 16-byte Folded Spill
	add	x29, sp, #32
	.cfi_def_cfa w29, 16
	.cfi_offset w30, -8
	.cfi_offset w29, -16
	stur	x0, [x29, #-8]
	str	x1, [sp, #16]
	ldur	x8, [x29, #-8]
	str	x8, [sp, #8]                    ; 8-byte Folded Spill
	ldr	x8, [sp, #16]
	str	x8, [sp]                        ; 8-byte Folded Spill
	ldr	x0, [sp, #16]
	bl	__ZNSt3__111char_traitsIcE6lengthB8ne190102EPKc
	ldr	x1, [sp]                        ; 8-byte Folded Reload
	mov	x2, x0
	ldr	x0, [sp, #8]                    ; 8-byte Folded Reload
	bl	__ZNSt3__124__put_character_sequenceB8ne190102IcNS_11char_traitsIcEEEERNS_13basic_ostreamIT_T0_EES7_PKS4_m
	ldp	x29, x30, [sp, #32]             ; 16-byte Folded Reload
	add	sp, sp, #48
	ret
	.cfi_endproc
                                        ; -- End function
	.private_extern	__ZNSt3__124__put_character_sequenceB8ne190102IcNS_11char_traitsIcEEEERNS_13basic_ostreamIT_T0_EES7_PKS4_m ; -- Begin function _ZNSt3__124__put_character_sequenceB8ne190102IcNS_11char_traitsIcEEEERNS_13basic_ostreamIT_T0_EES7_PKS4_m
	.globl	__ZNSt3__124__put_character_sequenceB8ne190102IcNS_11char_traitsIcEEEERNS_13basic_ostreamIT_T0_EES7_PKS4_m
	.weak_definition	__ZNSt3__124__put_character_sequenceB8ne190102IcNS_11char_traitsIcEEEERNS_13basic_ostreamIT_T0_EES7_PKS4_m
	.p2align	2
__ZNSt3__124__put_character_sequenceB8ne190102IcNS_11char_traitsIcEEEERNS_13basic_ostreamIT_T0_EES7_PKS4_m: ; @_ZNSt3__124__put_character_sequenceB8ne190102IcNS_11char_traitsIcEEEERNS_13basic_ostreamIT_T0_EES7_PKS4_m
Lfunc_begin0:
	.cfi_startproc
	.cfi_personality 155, ___gxx_personality_v0
	.cfi_lsda 16, Lexception0
; %bb.0:
	sub	sp, sp, #160
	stp	x29, x30, [sp, #144]            ; 16-byte Folded Spill
	add	x29, sp, #144
	.cfi_def_cfa w29, 16
	.cfi_offset w30, -8
	.cfi_offset w29, -16
	stur	x0, [x29, #-8]
	stur	x1, [x29, #-16]
	stur	x2, [x29, #-24]
	ldur	x1, [x29, #-8]
Ltmp0:
	sub	x0, x29, #40
	bl	__ZNSt3__113basic_ostreamIcNS_11char_traitsIcEEE6sentryC1ERS3_
Ltmp1:
	b	LBB2_1
LBB2_1:
Ltmp3:
	sub	x0, x29, #40
	bl	__ZNKSt3__113basic_ostreamIcNS_11char_traitsIcEEE6sentrycvbB8ne190102Ev
	str	w0, [sp, #68]                   ; 4-byte Folded Spill
Ltmp4:
	b	LBB2_2
LBB2_2:
	ldr	w8, [sp, #68]                   ; 4-byte Folded Reload
	tbz	w8, #0, LBB2_18
	b	LBB2_3
LBB2_3:
	ldur	x1, [x29, #-8]
	add	x0, sp, #72
	bl	__ZNSt3__119ostreambuf_iteratorIcNS_11char_traitsIcEEEC1B8ne190102ERNS_13basic_ostreamIcS2_EE
	ldur	x8, [x29, #-16]
	str	x8, [sp, #56]                   ; 8-byte Folded Spill
	ldur	x8, [x29, #-8]
	ldr	x9, [x8]
	ldur	x9, [x9, #-24]
	add	x0, x8, x9
Ltmp5:
	bl	__ZNKSt3__18ios_base5flagsB8ne190102Ev
	str	w0, [sp, #64]                   ; 4-byte Folded Spill
Ltmp6:
	b	LBB2_4
LBB2_4:
	ldr	w8, [sp, #64]                   ; 4-byte Folded Reload
	mov	w9, #176                        ; =0xb0
	and	w8, w8, w9
	subs	w8, w8, #32
	b.ne	LBB2_6
	b	LBB2_5
LBB2_5:
	ldur	x8, [x29, #-16]
	ldur	x9, [x29, #-24]
	add	x8, x8, x9
	str	x8, [sp, #48]                   ; 8-byte Folded Spill
	b	LBB2_7
LBB2_6:
	ldur	x8, [x29, #-16]
	str	x8, [sp, #48]                   ; 8-byte Folded Spill
	b	LBB2_7
LBB2_7:
	ldr	x8, [sp, #48]                   ; 8-byte Folded Reload
	str	x8, [sp, #16]                   ; 8-byte Folded Spill
	ldur	x8, [x29, #-16]
	ldur	x9, [x29, #-24]
	add	x8, x8, x9
	str	x8, [sp, #24]                   ; 8-byte Folded Spill
	ldur	x8, [x29, #-8]
	ldr	x9, [x8]
	ldur	x9, [x9, #-24]
	add	x8, x8, x9
	str	x8, [sp, #32]                   ; 8-byte Folded Spill
	ldur	x8, [x29, #-8]
	ldr	x9, [x8]
	ldur	x9, [x9, #-24]
	add	x0, x8, x9
Ltmp7:
	bl	__ZNKSt3__19basic_iosIcNS_11char_traitsIcEEE4fillB8ne190102Ev
	str	w0, [sp, #44]                   ; 4-byte Folded Spill
Ltmp8:
	b	LBB2_8
LBB2_8:
	ldr	w5, [sp, #44]                   ; 4-byte Folded Reload
	ldr	x4, [sp, #32]                   ; 8-byte Folded Reload
	ldr	x3, [sp, #24]                   ; 8-byte Folded Reload
	ldr	x2, [sp, #16]                   ; 8-byte Folded Reload
	ldr	x1, [sp, #56]                   ; 8-byte Folded Reload
	ldr	x0, [sp, #72]
Ltmp9:
	bl	__ZNSt3__116__pad_and_outputB8ne190102IcNS_11char_traitsIcEEEENS_19ostreambuf_iteratorIT_T0_EES6_PKS4_S8_S8_RNS_8ios_baseES4_
	str	x0, [sp, #8]                    ; 8-byte Folded Spill
Ltmp10:
	b	LBB2_9
LBB2_9:
	ldr	x8, [sp, #8]                    ; 8-byte Folded Reload
	sub	x0, x29, #64
	stur	x8, [x29, #-64]
	bl	__ZNKSt3__119ostreambuf_iteratorIcNS_11char_traitsIcEEE6failedB8ne190102Ev
	tbz	w0, #0, LBB2_17
	b	LBB2_10
LBB2_10:
	ldur	x8, [x29, #-8]
	ldr	x9, [x8]
	ldur	x9, [x9, #-24]
	add	x0, x8, x9
Ltmp11:
	mov	w1, #5                          ; =0x5
	bl	__ZNSt3__19basic_iosIcNS_11char_traitsIcEEE8setstateB8ne190102Ej
Ltmp12:
	b	LBB2_11
LBB2_11:
	b	LBB2_17
LBB2_12:
Ltmp2:
	stur	x0, [x29, #-48]
	mov	x8, x1
	stur	w8, [x29, #-52]
	b	LBB2_14
LBB2_13:
Ltmp13:
	stur	x0, [x29, #-48]
	mov	x8, x1
	stur	w8, [x29, #-52]
	sub	x0, x29, #40
	bl	__ZNSt3__113basic_ostreamIcNS_11char_traitsIcEEE6sentryD1Ev
	b	LBB2_14
LBB2_14:
	ldur	x0, [x29, #-48]
	bl	___cxa_begin_catch
	ldur	x8, [x29, #-8]
	ldr	x9, [x8]
	ldur	x9, [x9, #-24]
	add	x0, x8, x9
Ltmp14:
	bl	__ZNSt3__18ios_base33__set_badbit_and_consider_rethrowEv
Ltmp15:
	b	LBB2_15
LBB2_15:
	bl	___cxa_end_catch
	b	LBB2_16
LBB2_16:
	ldur	x0, [x29, #-8]
	ldp	x29, x30, [sp, #144]            ; 16-byte Folded Reload
	add	sp, sp, #160
	ret
LBB2_17:
	b	LBB2_18
LBB2_18:
	sub	x0, x29, #40
	bl	__ZNSt3__113basic_ostreamIcNS_11char_traitsIcEEE6sentryD1Ev
	b	LBB2_16
LBB2_19:
Ltmp16:
	stur	x0, [x29, #-48]
	mov	x8, x1
	stur	w8, [x29, #-52]
Ltmp17:
	bl	___cxa_end_catch
Ltmp18:
	b	LBB2_20
LBB2_20:
	b	LBB2_21
LBB2_21:
	ldur	x0, [x29, #-48]
	bl	__Unwind_Resume
LBB2_22:
Ltmp19:
	bl	___clang_call_terminate
Lfunc_end0:
	.cfi_endproc
	.section	__TEXT,__gcc_except_tab
	.p2align	2, 0x0
GCC_except_table2:
Lexception0:
	.byte	255                             ; @LPStart Encoding = omit
	.byte	155                             ; @TType Encoding = indirect pcrel sdata4
	.uleb128 Lttbase0-Lttbaseref0
Lttbaseref0:
	.byte	1                               ; Call site Encoding = uleb128
	.uleb128 Lcst_end0-Lcst_begin0
Lcst_begin0:
	.uleb128 Ltmp0-Lfunc_begin0             ; >> Call Site 1 <<
	.uleb128 Ltmp1-Ltmp0                    ;   Call between Ltmp0 and Ltmp1
	.uleb128 Ltmp2-Lfunc_begin0             ;     jumps to Ltmp2
	.byte	1                               ;   On action: 1
	.uleb128 Ltmp3-Lfunc_begin0             ; >> Call Site 2 <<
	.uleb128 Ltmp12-Ltmp3                   ;   Call between Ltmp3 and Ltmp12
	.uleb128 Ltmp13-Lfunc_begin0            ;     jumps to Ltmp13
	.byte	1                               ;   On action: 1
	.uleb128 Ltmp12-Lfunc_begin0            ; >> Call Site 3 <<
	.uleb128 Ltmp14-Ltmp12                  ;   Call between Ltmp12 and Ltmp14
	.byte	0                               ;     has no landing pad
	.byte	0                               ;   On action: cleanup
	.uleb128 Ltmp14-Lfunc_begin0            ; >> Call Site 4 <<
	.uleb128 Ltmp15-Ltmp14                  ;   Call between Ltmp14 and Ltmp15
	.uleb128 Ltmp16-Lfunc_begin0            ;     jumps to Ltmp16
	.byte	0                               ;   On action: cleanup
	.uleb128 Ltmp15-Lfunc_begin0            ; >> Call Site 5 <<
	.uleb128 Ltmp17-Ltmp15                  ;   Call between Ltmp15 and Ltmp17
	.byte	0                               ;     has no landing pad
	.byte	0                               ;   On action: cleanup
	.uleb128 Ltmp17-Lfunc_begin0            ; >> Call Site 6 <<
	.uleb128 Ltmp18-Ltmp17                  ;   Call between Ltmp17 and Ltmp18
	.uleb128 Ltmp19-Lfunc_begin0            ;     jumps to Ltmp19
	.byte	1                               ;   On action: 1
	.uleb128 Ltmp18-Lfunc_begin0            ; >> Call Site 7 <<
	.uleb128 Lfunc_end0-Ltmp18              ;   Call between Ltmp18 and Lfunc_end0
	.byte	0                               ;     has no landing pad
	.byte	0                               ;   On action: cleanup
Lcst_end0:
	.byte	1                               ; >> Action Record 1 <<
                                        ;   Catch TypeInfo 1
	.byte	0                               ;   No further actions
	.p2align	2, 0x0
                                        ; >> Catch TypeInfos <<
	.long	0                               ; TypeInfo 1
Lttbase0:
	.p2align	2, 0x0
                                        ; -- End function
	.section	__TEXT,__text,regular,pure_instructions
	.private_extern	__ZNSt3__111char_traitsIcE6lengthB8ne190102EPKc ; -- Begin function _ZNSt3__111char_traitsIcE6lengthB8ne190102EPKc
	.globl	__ZNSt3__111char_traitsIcE6lengthB8ne190102EPKc
	.weak_definition	__ZNSt3__111char_traitsIcE6lengthB8ne190102EPKc
	.p2align	2
__ZNSt3__111char_traitsIcE6lengthB8ne190102EPKc: ; @_ZNSt3__111char_traitsIcE6lengthB8ne190102EPKc
	.cfi_startproc
; %bb.0:
	sub	sp, sp, #32
	stp	x29, x30, [sp, #16]             ; 16-byte Folded Spill
	add	x29, sp, #16
	.cfi_def_cfa w29, 16
	.cfi_offset w30, -8
	.cfi_offset w29, -16
	str	x0, [sp, #8]
	ldr	x0, [sp, #8]
	bl	__ZNSt3__118__constexpr_strlenB8ne190102IcEEmPKT_
	ldp	x29, x30, [sp, #16]             ; 16-byte Folded Reload
	add	sp, sp, #32
	ret
	.cfi_endproc
                                        ; -- End function
	.private_extern	__ZNKSt3__113basic_ostreamIcNS_11char_traitsIcEEE6sentrycvbB8ne190102Ev ; -- Begin function _ZNKSt3__113basic_ostreamIcNS_11char_traitsIcEEE6sentrycvbB8ne190102Ev
	.globl	__ZNKSt3__113basic_ostreamIcNS_11char_traitsIcEEE6sentrycvbB8ne190102Ev
	.weak_definition	__ZNKSt3__113basic_ostreamIcNS_11char_traitsIcEEE6sentrycvbB8ne190102Ev
	.p2align	2
__ZNKSt3__113basic_ostreamIcNS_11char_traitsIcEEE6sentrycvbB8ne190102Ev: ; @_ZNKSt3__113basic_ostreamIcNS_11char_traitsIcEEE6sentrycvbB8ne190102Ev
	.cfi_startproc
; %bb.0:
	sub	sp, sp, #16
	.cfi_def_cfa_offset 16
	str	x0, [sp, #8]
	ldr	x8, [sp, #8]
	ldrb	w8, [x8]
	and	w0, w8, #0x1
	add	sp, sp, #16
	ret
	.cfi_endproc
                                        ; -- End function
	.private_extern	__ZNSt3__116__pad_and_outputB8ne190102IcNS_11char_traitsIcEEEENS_19ostreambuf_iteratorIT_T0_EES6_PKS4_S8_S8_RNS_8ios_baseES4_ ; -- Begin function _ZNSt3__116__pad_and_outputB8ne190102IcNS_11char_traitsIcEEEENS_19ostreambuf_iteratorIT_T0_EES6_PKS4_S8_S8_RNS_8ios_baseES4_
	.globl	__ZNSt3__116__pad_and_outputB8ne190102IcNS_11char_traitsIcEEEENS_19ostreambuf_iteratorIT_T0_EES6_PKS4_S8_S8_RNS_8ios_baseES4_
	.weak_definition	__ZNSt3__116__pad_and_outputB8ne190102IcNS_11char_traitsIcEEEENS_19ostreambuf_iteratorIT_T0_EES6_PKS4_S8_S8_RNS_8ios_baseES4_
	.p2align	2
__ZNSt3__116__pad_and_outputB8ne190102IcNS_11char_traitsIcEEEENS_19ostreambuf_iteratorIT_T0_EES6_PKS4_S8_S8_RNS_8ios_baseES4_: ; @_ZNSt3__116__pad_and_outputB8ne190102IcNS_11char_traitsIcEEEENS_19ostreambuf_iteratorIT_T0_EES6_PKS4_S8_S8_RNS_8ios_baseES4_
Lfunc_begin1:
	.cfi_startproc
	.cfi_personality 155, ___gxx_personality_v0
	.cfi_lsda 16, Lexception1
; %bb.0:
	sub	sp, sp, #160
	stp	x29, x30, [sp, #144]            ; 16-byte Folded Spill
	add	x29, sp, #144
	.cfi_def_cfa w29, 16
	.cfi_offset w30, -8
	.cfi_offset w29, -16
	stur	x0, [x29, #-16]
	stur	x1, [x29, #-24]
	stur	x2, [x29, #-32]
	stur	x3, [x29, #-40]
	stur	x4, [x29, #-48]
	sturb	w5, [x29, #-49]
	ldur	x8, [x29, #-16]
	cbnz	x8, LBB5_2
	b	LBB5_1
LBB5_1:
	ldur	x8, [x29, #-16]
	stur	x8, [x29, #-8]
	b	LBB5_23
LBB5_2:
	ldur	x8, [x29, #-40]
	ldur	x9, [x29, #-24]
	subs	x8, x8, x9
	stur	x8, [x29, #-64]
	ldur	x0, [x29, #-48]
	bl	__ZNKSt3__18ios_base5widthB8ne190102Ev
	str	x0, [sp, #72]
	ldr	x8, [sp, #72]
	ldur	x9, [x29, #-64]
	subs	x8, x8, x9
	b.le	LBB5_4
	b	LBB5_3
LBB5_3:
	ldur	x9, [x29, #-64]
	ldr	x8, [sp, #72]
	subs	x8, x8, x9
	str	x8, [sp, #72]
	b	LBB5_5
LBB5_4:
	str	xzr, [sp, #72]
	b	LBB5_5
LBB5_5:
	ldur	x8, [x29, #-32]
	ldur	x9, [x29, #-24]
	subs	x8, x8, x9
	str	x8, [sp, #64]
	ldr	x8, [sp, #64]
	subs	x8, x8, #0
	b.le	LBB5_9
	b	LBB5_6
LBB5_6:
	ldur	x0, [x29, #-16]
	ldur	x1, [x29, #-24]
	ldr	x2, [sp, #64]
	bl	__ZNSt3__115basic_streambufIcNS_11char_traitsIcEEE5sputnB8ne190102EPKcl
	ldr	x8, [sp, #64]
	subs	x8, x0, x8
	b.eq	LBB5_8
	b	LBB5_7
LBB5_7:
                                        ; kill: def $x8 killed $xzr
	stur	xzr, [x29, #-16]
	ldur	x8, [x29, #-16]
	stur	x8, [x29, #-8]
	b	LBB5_23
LBB5_8:
	b	LBB5_9
LBB5_9:
	ldr	x8, [sp, #72]
	subs	x8, x8, #0
	b.le	LBB5_18
	b	LBB5_10
LBB5_10:
	ldr	x1, [sp, #72]
	ldursb	w2, [x29, #-49]
	add	x0, sp, #40
	str	x0, [sp]                        ; 8-byte Folded Spill
	bl	__ZNSt3__112basic_stringIcNS_11char_traitsIcEENS_9allocatorIcEEEC1B8ne190102Emc
	ldr	x0, [sp]                        ; 8-byte Folded Reload
	ldur	x8, [x29, #-16]
	str	x8, [sp, #8]                    ; 8-byte Folded Spill
	bl	__ZNKSt3__112basic_stringIcNS_11char_traitsIcEENS_9allocatorIcEEE4dataB8ne190102Ev
	mov	x1, x0
	ldr	x0, [sp, #8]                    ; 8-byte Folded Reload
	ldr	x2, [sp, #72]
Ltmp21:
	bl	__ZNSt3__115basic_streambufIcNS_11char_traitsIcEEE5sputnB8ne190102EPKcl
	str	x0, [sp, #16]                   ; 8-byte Folded Spill
Ltmp22:
	b	LBB5_11
LBB5_11:
	ldr	x8, [sp, #16]                   ; 8-byte Folded Reload
	ldr	x9, [sp, #72]
	subs	x8, x8, x9
	b.eq	LBB5_14
	b	LBB5_12
LBB5_12:
                                        ; kill: def $x8 killed $xzr
	stur	xzr, [x29, #-16]
	ldur	x8, [x29, #-16]
	stur	x8, [x29, #-8]
	mov	w8, #1                          ; =0x1
	str	w8, [sp, #24]
	b	LBB5_15
LBB5_13:
Ltmp23:
	str	x0, [sp, #32]
	mov	x8, x1
	str	w8, [sp, #28]
	add	x0, sp, #40
	bl	__ZNSt3__112basic_stringIcNS_11char_traitsIcEENS_9allocatorIcEEED1Ev
	b	LBB5_24
LBB5_14:
	str	wzr, [sp, #24]
	b	LBB5_15
LBB5_15:
	add	x0, sp, #40
	bl	__ZNSt3__112basic_stringIcNS_11char_traitsIcEENS_9allocatorIcEEED1Ev
	ldr	w8, [sp, #24]
	cbz	w8, LBB5_17
	b	LBB5_16
LBB5_16:
	b	LBB5_23
LBB5_17:
	b	LBB5_18
LBB5_18:
	ldur	x8, [x29, #-40]
	ldur	x9, [x29, #-32]
	subs	x8, x8, x9
	str	x8, [sp, #64]
	ldr	x8, [sp, #64]
	subs	x8, x8, #0
	b.le	LBB5_22
	b	LBB5_19
LBB5_19:
	ldur	x0, [x29, #-16]
	ldur	x1, [x29, #-32]
	ldr	x2, [sp, #64]
	bl	__ZNSt3__115basic_streambufIcNS_11char_traitsIcEEE5sputnB8ne190102EPKcl
	ldr	x8, [sp, #64]
	subs	x8, x0, x8
	b.eq	LBB5_21
	b	LBB5_20
LBB5_20:
                                        ; kill: def $x8 killed $xzr
	stur	xzr, [x29, #-16]
	ldur	x8, [x29, #-16]
	stur	x8, [x29, #-8]
	b	LBB5_23
LBB5_21:
	b	LBB5_22
LBB5_22:
	ldur	x0, [x29, #-48]
	mov	x1, #0                          ; =0x0
	bl	__ZNSt3__18ios_base5widthB8ne190102El
	ldur	x8, [x29, #-16]
	stur	x8, [x29, #-8]
	b	LBB5_23
LBB5_23:
	ldur	x0, [x29, #-8]
	ldp	x29, x30, [sp, #144]            ; 16-byte Folded Reload
	add	sp, sp, #160
	ret
LBB5_24:
	ldr	x0, [sp, #32]
	bl	__Unwind_Resume
; %bb.25:
Lfunc_end1:
	.cfi_endproc
	.section	__TEXT,__gcc_except_tab
	.p2align	2, 0x0
GCC_except_table5:
Lexception1:
	.byte	255                             ; @LPStart Encoding = omit
	.byte	255                             ; @TType Encoding = omit
	.byte	1                               ; Call site Encoding = uleb128
	.uleb128 Lcst_end1-Lcst_begin1
Lcst_begin1:
	.uleb128 Lfunc_begin1-Lfunc_begin1      ; >> Call Site 1 <<
	.uleb128 Ltmp21-Lfunc_begin1            ;   Call between Lfunc_begin1 and Ltmp21
	.byte	0                               ;     has no landing pad
	.byte	0                               ;   On action: cleanup
	.uleb128 Ltmp21-Lfunc_begin1            ; >> Call Site 2 <<
	.uleb128 Ltmp22-Ltmp21                  ;   Call between Ltmp21 and Ltmp22
	.uleb128 Ltmp23-Lfunc_begin1            ;     jumps to Ltmp23
	.byte	0                               ;   On action: cleanup
	.uleb128 Ltmp22-Lfunc_begin1            ; >> Call Site 3 <<
	.uleb128 Lfunc_end1-Ltmp22              ;   Call between Ltmp22 and Lfunc_end1
	.byte	0                               ;     has no landing pad
	.byte	0                               ;   On action: cleanup
Lcst_end1:
	.p2align	2, 0x0
                                        ; -- End function
	.section	__TEXT,__text,regular,pure_instructions
	.private_extern	__ZNSt3__119ostreambuf_iteratorIcNS_11char_traitsIcEEEC1B8ne190102ERNS_13basic_ostreamIcS2_EE ; -- Begin function _ZNSt3__119ostreambuf_iteratorIcNS_11char_traitsIcEEEC1B8ne190102ERNS_13basic_ostreamIcS2_EE
	.globl	__ZNSt3__119ostreambuf_iteratorIcNS_11char_traitsIcEEEC1B8ne190102ERNS_13basic_ostreamIcS2_EE
	.weak_def_can_be_hidden	__ZNSt3__119ostreambuf_iteratorIcNS_11char_traitsIcEEEC1B8ne190102ERNS_13basic_ostreamIcS2_EE
	.p2align	2
__ZNSt3__119ostreambuf_iteratorIcNS_11char_traitsIcEEEC1B8ne190102ERNS_13basic_ostreamIcS2_EE: ; @_ZNSt3__119ostreambuf_iteratorIcNS_11char_traitsIcEEEC1B8ne190102ERNS_13basic_ostreamIcS2_EE
	.cfi_startproc
; %bb.0:
	sub	sp, sp, #48
	stp	x29, x30, [sp, #32]             ; 16-byte Folded Spill
	add	x29, sp, #32
	.cfi_def_cfa w29, 16
	.cfi_offset w30, -8
	.cfi_offset w29, -16
	stur	x0, [x29, #-8]
	str	x1, [sp, #16]
	ldur	x0, [x29, #-8]
	str	x0, [sp, #8]                    ; 8-byte Folded Spill
	ldr	x1, [sp, #16]
	bl	__ZNSt3__119ostreambuf_iteratorIcNS_11char_traitsIcEEEC2B8ne190102ERNS_13basic_ostreamIcS2_EE
	ldr	x0, [sp, #8]                    ; 8-byte Folded Reload
	ldp	x29, x30, [sp, #32]             ; 16-byte Folded Reload
	add	sp, sp, #48
	ret
	.cfi_endproc
                                        ; -- End function
	.private_extern	__ZNKSt3__18ios_base5flagsB8ne190102Ev ; -- Begin function _ZNKSt3__18ios_base5flagsB8ne190102Ev
	.globl	__ZNKSt3__18ios_base5flagsB8ne190102Ev
	.weak_definition	__ZNKSt3__18ios_base5flagsB8ne190102Ev
	.p2align	2
__ZNKSt3__18ios_base5flagsB8ne190102Ev: ; @_ZNKSt3__18ios_base5flagsB8ne190102Ev
	.cfi_startproc
; %bb.0:
	sub	sp, sp, #16
	.cfi_def_cfa_offset 16
	str	x0, [sp, #8]
	ldr	x8, [sp, #8]
	ldr	w0, [x8, #8]
	add	sp, sp, #16
	ret
	.cfi_endproc
                                        ; -- End function
	.private_extern	__ZNKSt3__19basic_iosIcNS_11char_traitsIcEEE4fillB8ne190102Ev ; -- Begin function _ZNKSt3__19basic_iosIcNS_11char_traitsIcEEE4fillB8ne190102Ev
	.globl	__ZNKSt3__19basic_iosIcNS_11char_traitsIcEEE4fillB8ne190102Ev
	.weak_definition	__ZNKSt3__19basic_iosIcNS_11char_traitsIcEEE4fillB8ne190102Ev
	.p2align	2
__ZNKSt3__19basic_iosIcNS_11char_traitsIcEEE4fillB8ne190102Ev: ; @_ZNKSt3__19basic_iosIcNS_11char_traitsIcEEE4fillB8ne190102Ev
	.cfi_startproc
; %bb.0:
	sub	sp, sp, #32
	stp	x29, x30, [sp, #16]             ; 16-byte Folded Spill
	add	x29, sp, #16
	.cfi_def_cfa w29, 16
	.cfi_offset w30, -8
	.cfi_offset w29, -16
	str	x0, [sp, #8]
	ldr	x8, [sp, #8]
	str	x8, [sp]                        ; 8-byte Folded Spill
	add	x0, x8, #144
	bl	__ZNKSt3__118_SentinelValueFillINS_11char_traitsIcEEE8__is_setB8ne190102Ev
	tbnz	w0, #0, LBB8_2
	b	LBB8_1
LBB8_1:
	ldr	x0, [sp]                        ; 8-byte Folded Reload
	mov	w1, #32                         ; =0x20
	bl	__ZNKSt3__19basic_iosIcNS_11char_traitsIcEEE5widenB8ne190102Ec
	ldr	x8, [sp]                        ; 8-byte Folded Reload
	mov	x1, x0
	add	x0, x8, #144
	bl	__ZNSt3__118_SentinelValueFillINS_11char_traitsIcEEEaSB8ne190102Ei
	b	LBB8_2
LBB8_2:
	ldr	x8, [sp]                        ; 8-byte Folded Reload
	add	x0, x8, #144
	bl	__ZNKSt3__118_SentinelValueFillINS_11char_traitsIcEEE5__getB8ne190102Ev
	sxtb	w0, w0
	ldp	x29, x30, [sp, #16]             ; 16-byte Folded Reload
	add	sp, sp, #32
	ret
	.cfi_endproc
                                        ; -- End function
	.private_extern	__ZNKSt3__119ostreambuf_iteratorIcNS_11char_traitsIcEEE6failedB8ne190102Ev ; -- Begin function _ZNKSt3__119ostreambuf_iteratorIcNS_11char_traitsIcEEE6failedB8ne190102Ev
	.globl	__ZNKSt3__119ostreambuf_iteratorIcNS_11char_traitsIcEEE6failedB8ne190102Ev
	.weak_definition	__ZNKSt3__119ostreambuf_iteratorIcNS_11char_traitsIcEEE6failedB8ne190102Ev
	.p2align	2
__ZNKSt3__119ostreambuf_iteratorIcNS_11char_traitsIcEEE6failedB8ne190102Ev: ; @_ZNKSt3__119ostreambuf_iteratorIcNS_11char_traitsIcEEE6failedB8ne190102Ev
	.cfi_startproc
; %bb.0:
	sub	sp, sp, #16
	.cfi_def_cfa_offset 16
	str	x0, [sp, #8]
	ldr	x8, [sp, #8]
	ldr	x8, [x8]
	subs	x8, x8, #0
	cset	w0, eq
	add	sp, sp, #16
	ret
	.cfi_endproc
                                        ; -- End function
	.private_extern	__ZNSt3__19basic_iosIcNS_11char_traitsIcEEE8setstateB8ne190102Ej ; -- Begin function _ZNSt3__19basic_iosIcNS_11char_traitsIcEEE8setstateB8ne190102Ej
	.globl	__ZNSt3__19basic_iosIcNS_11char_traitsIcEEE8setstateB8ne190102Ej
	.weak_definition	__ZNSt3__19basic_iosIcNS_11char_traitsIcEEE8setstateB8ne190102Ej
	.p2align	2
__ZNSt3__19basic_iosIcNS_11char_traitsIcEEE8setstateB8ne190102Ej: ; @_ZNSt3__19basic_iosIcNS_11char_traitsIcEEE8setstateB8ne190102Ej
	.cfi_startproc
; %bb.0:
	sub	sp, sp, #32
	stp	x29, x30, [sp, #16]             ; 16-byte Folded Spill
	add	x29, sp, #16
	.cfi_def_cfa w29, 16
	.cfi_offset w30, -8
	.cfi_offset w29, -16
	str	x0, [sp, #8]
	str	w1, [sp, #4]
	ldr	x0, [sp, #8]
	ldr	w1, [sp, #4]
	bl	__ZNSt3__18ios_base8setstateB8ne190102Ej
	ldp	x29, x30, [sp, #16]             ; 16-byte Folded Reload
	add	sp, sp, #32
	ret
	.cfi_endproc
                                        ; -- End function
	.private_extern	___clang_call_terminate ; -- Begin function __clang_call_terminate
	.globl	___clang_call_terminate
	.weak_definition	___clang_call_terminate
	.p2align	2
___clang_call_terminate:                ; @__clang_call_terminate
	.cfi_startproc
; %bb.0:
	stp	x29, x30, [sp, #-16]!           ; 16-byte Folded Spill
	mov	x29, sp
	.cfi_def_cfa w29, 16
	.cfi_offset w30, -8
	.cfi_offset w29, -16
	bl	___cxa_begin_catch
	bl	__ZSt9terminatev
	.cfi_endproc
                                        ; -- End function
	.private_extern	__ZNKSt3__18ios_base5widthB8ne190102Ev ; -- Begin function _ZNKSt3__18ios_base5widthB8ne190102Ev
	.globl	__ZNKSt3__18ios_base5widthB8ne190102Ev
	.weak_definition	__ZNKSt3__18ios_base5widthB8ne190102Ev
	.p2align	2
__ZNKSt3__18ios_base5widthB8ne190102Ev: ; @_ZNKSt3__18ios_base5widthB8ne190102Ev
	.cfi_startproc
; %bb.0:
	sub	sp, sp, #16
	.cfi_def_cfa_offset 16
	str	x0, [sp, #8]
	ldr	x8, [sp, #8]
	ldr	x0, [x8, #24]
	add	sp, sp, #16
	ret
	.cfi_endproc
                                        ; -- End function
	.private_extern	__ZNSt3__115basic_streambufIcNS_11char_traitsIcEEE5sputnB8ne190102EPKcl ; -- Begin function _ZNSt3__115basic_streambufIcNS_11char_traitsIcEEE5sputnB8ne190102EPKcl
	.globl	__ZNSt3__115basic_streambufIcNS_11char_traitsIcEEE5sputnB8ne190102EPKcl
	.weak_definition	__ZNSt3__115basic_streambufIcNS_11char_traitsIcEEE5sputnB8ne190102EPKcl
	.p2align	2
__ZNSt3__115basic_streambufIcNS_11char_traitsIcEEE5sputnB8ne190102EPKcl: ; @_ZNSt3__115basic_streambufIcNS_11char_traitsIcEEE5sputnB8ne190102EPKcl
	.cfi_startproc
; %bb.0:
	sub	sp, sp, #48
	stp	x29, x30, [sp, #32]             ; 16-byte Folded Spill
	add	x29, sp, #32
	.cfi_def_cfa w29, 16
	.cfi_offset w30, -8
	.cfi_offset w29, -16
	stur	x0, [x29, #-8]
	str	x1, [sp, #16]
	str	x2, [sp, #8]
	ldur	x0, [x29, #-8]
	ldr	x1, [sp, #16]
	ldr	x2, [sp, #8]
	ldr	x8, [x0]
	ldr	x8, [x8, #96]
	blr	x8
	ldp	x29, x30, [sp, #32]             ; 16-byte Folded Reload
	add	sp, sp, #48
	ret
	.cfi_endproc
                                        ; -- End function
	.private_extern	__ZNSt3__112basic_stringIcNS_11char_traitsIcEENS_9allocatorIcEEEC1B8ne190102Emc ; -- Begin function _ZNSt3__112basic_stringIcNS_11char_traitsIcEENS_9allocatorIcEEEC1B8ne190102Emc
	.globl	__ZNSt3__112basic_stringIcNS_11char_traitsIcEENS_9allocatorIcEEEC1B8ne190102Emc
	.weak_def_can_be_hidden	__ZNSt3__112basic_stringIcNS_11char_traitsIcEENS_9allocatorIcEEEC1B8ne190102Emc
	.p2align	2
__ZNSt3__112basic_stringIcNS_11char_traitsIcEENS_9allocatorIcEEEC1B8ne190102Emc: ; @_ZNSt3__112basic_stringIcNS_11char_traitsIcEENS_9allocatorIcEEEC1B8ne190102Emc
	.cfi_startproc
; %bb.0:
	sub	sp, sp, #48
	stp	x29, x30, [sp, #32]             ; 16-byte Folded Spill
	add	x29, sp, #32
	.cfi_def_cfa w29, 16
	.cfi_offset w30, -8
	.cfi_offset w29, -16
	stur	x0, [x29, #-8]
	str	x1, [sp, #16]
	strb	w2, [sp, #15]
	ldur	x0, [x29, #-8]
	str	x0, [sp]                        ; 8-byte Folded Spill
	ldr	x1, [sp, #16]
	ldrsb	w2, [sp, #15]
	bl	__ZNSt3__112basic_stringIcNS_11char_traitsIcEENS_9allocatorIcEEEC2B8ne190102Emc
	ldr	x0, [sp]                        ; 8-byte Folded Reload
	ldp	x29, x30, [sp, #32]             ; 16-byte Folded Reload
	add	sp, sp, #48
	ret
	.cfi_endproc
                                        ; -- End function
	.private_extern	__ZNKSt3__112basic_stringIcNS_11char_traitsIcEENS_9allocatorIcEEE4dataB8ne190102Ev ; -- Begin function _ZNKSt3__112basic_stringIcNS_11char_traitsIcEENS_9allocatorIcEEE4dataB8ne190102Ev
	.globl	__ZNKSt3__112basic_stringIcNS_11char_traitsIcEENS_9allocatorIcEEE4dataB8ne190102Ev
	.weak_definition	__ZNKSt3__112basic_stringIcNS_11char_traitsIcEENS_9allocatorIcEEE4dataB8ne190102Ev
	.p2align	2
__ZNKSt3__112basic_stringIcNS_11char_traitsIcEENS_9allocatorIcEEE4dataB8ne190102Ev: ; @_ZNKSt3__112basic_stringIcNS_11char_traitsIcEENS_9allocatorIcEEE4dataB8ne190102Ev
	.cfi_startproc
; %bb.0:
	sub	sp, sp, #32
	stp	x29, x30, [sp, #16]             ; 16-byte Folded Spill
	add	x29, sp, #16
	.cfi_def_cfa w29, 16
	.cfi_offset w30, -8
	.cfi_offset w29, -16
	str	x0, [sp, #8]
	ldr	x0, [sp, #8]
	bl	__ZNKSt3__112basic_stringIcNS_11char_traitsIcEENS_9allocatorIcEEE13__get_pointerB8ne190102Ev
	bl	__ZNSt3__112__to_addressB8ne190102IKcEEPT_S3_
	ldp	x29, x30, [sp, #16]             ; 16-byte Folded Reload
	add	sp, sp, #32
	ret
	.cfi_endproc
                                        ; -- End function
	.private_extern	__ZNSt3__18ios_base5widthB8ne190102El ; -- Begin function _ZNSt3__18ios_base5widthB8ne190102El
	.globl	__ZNSt3__18ios_base5widthB8ne190102El
	.weak_definition	__ZNSt3__18ios_base5widthB8ne190102El
	.p2align	2
__ZNSt3__18ios_base5widthB8ne190102El:  ; @_ZNSt3__18ios_base5widthB8ne190102El
	.cfi_startproc
; %bb.0:
	sub	sp, sp, #32
	.cfi_def_cfa_offset 32
	str	x0, [sp, #24]
	str	x1, [sp, #16]
	ldr	x9, [sp, #24]
	ldr	x8, [x9, #24]
	str	x8, [sp, #8]
	ldr	x8, [sp, #16]
	str	x8, [x9, #24]
	ldr	x0, [sp, #8]
	add	sp, sp, #32
	ret
	.cfi_endproc
                                        ; -- End function
	.private_extern	__ZNSt3__112basic_stringIcNS_11char_traitsIcEENS_9allocatorIcEEEC2B8ne190102Emc ; -- Begin function _ZNSt3__112basic_stringIcNS_11char_traitsIcEENS_9allocatorIcEEEC2B8ne190102Emc
	.globl	__ZNSt3__112basic_stringIcNS_11char_traitsIcEENS_9allocatorIcEEEC2B8ne190102Emc
	.weak_def_can_be_hidden	__ZNSt3__112basic_stringIcNS_11char_traitsIcEENS_9allocatorIcEEEC2B8ne190102Emc
	.p2align	2
__ZNSt3__112basic_stringIcNS_11char_traitsIcEENS_9allocatorIcEEEC2B8ne190102Emc: ; @_ZNSt3__112basic_stringIcNS_11char_traitsIcEENS_9allocatorIcEEEC2B8ne190102Emc
	.cfi_startproc
; %bb.0:
	sub	sp, sp, #48
	stp	x29, x30, [sp, #32]             ; 16-byte Folded Spill
	add	x29, sp, #32
	.cfi_def_cfa w29, 16
	.cfi_offset w30, -8
	.cfi_offset w29, -16
	stur	x0, [x29, #-8]
	str	x1, [sp, #16]
	strb	w2, [sp, #15]
	ldur	x0, [x29, #-8]
	str	x0, [sp]                        ; 8-byte Folded Spill
	add	x1, sp, #14
	add	x2, sp, #13
	bl	__ZNSt3__117__compressed_pairINS_12basic_stringIcNS_11char_traitsIcEENS_9allocatorIcEEE5__repES5_EC1B8ne190102INS_18__default_init_tagESA_EEOT_OT0_
	ldr	x0, [sp]                        ; 8-byte Folded Reload
	ldr	x1, [sp, #16]
	ldrsb	w2, [sp, #15]
	bl	__ZNSt3__112basic_stringIcNS_11char_traitsIcEENS_9allocatorIcEEE6__initEmc
	ldr	x0, [sp]                        ; 8-byte Folded Reload
	ldp	x29, x30, [sp, #32]             ; 16-byte Folded Reload
	add	sp, sp, #48
	ret
	.cfi_endproc
                                        ; -- End function
	.globl	__ZNSt3__117__compressed_pairINS_12basic_stringIcNS_11char_traitsIcEENS_9allocatorIcEEE5__repES5_EC1B8ne190102INS_18__default_init_tagESA_EEOT_OT0_ ; -- Begin function _ZNSt3__117__compressed_pairINS_12basic_stringIcNS_11char_traitsIcEENS_9allocatorIcEEE5__repES5_EC1B8ne190102INS_18__default_init_tagESA_EEOT_OT0_
	.weak_def_can_be_hidden	__ZNSt3__117__compressed_pairINS_12basic_stringIcNS_11char_traitsIcEENS_9allocatorIcEEE5__repES5_EC1B8ne190102INS_18__default_init_tagESA_EEOT_OT0_
	.p2align	2
__ZNSt3__117__compressed_pairINS_12basic_stringIcNS_11char_traitsIcEENS_9allocatorIcEEE5__repES5_EC1B8ne190102INS_18__default_init_tagESA_EEOT_OT0_: ; @_ZNSt3__117__compressed_pairINS_12basic_stringIcNS_11char_traitsIcEENS_9allocatorIcEEE5__repES5_EC1B8ne190102INS_18__default_init_tagESA_EEOT_OT0_
	.cfi_startproc
; %bb.0:
	sub	sp, sp, #48
	stp	x29, x30, [sp, #32]             ; 16-byte Folded Spill
	add	x29, sp, #32
	.cfi_def_cfa w29, 16
	.cfi_offset w30, -8
	.cfi_offset w29, -16
	stur	x0, [x29, #-8]
	str	x1, [sp, #16]
	str	x2, [sp, #8]
	ldur	x0, [x29, #-8]
	str	x0, [sp]                        ; 8-byte Folded Spill
	ldr	x1, [sp, #16]
	ldr	x2, [sp, #8]
	bl	__ZNSt3__117__compressed_pairINS_12basic_stringIcNS_11char_traitsIcEENS_9allocatorIcEEE5__repES5_EC2B8ne190102INS_18__default_init_tagESA_EEOT_OT0_
	ldr	x0, [sp]                        ; 8-byte Folded Reload
	ldp	x29, x30, [sp, #32]             ; 16-byte Folded Reload
	add	sp, sp, #48
	ret
	.cfi_endproc
                                        ; -- End function
	.globl	__ZNSt3__117__compressed_pairINS_12basic_stringIcNS_11char_traitsIcEENS_9allocatorIcEEE5__repES5_EC2B8ne190102INS_18__default_init_tagESA_EEOT_OT0_ ; -- Begin function _ZNSt3__117__compressed_pairINS_12basic_stringIcNS_11char_traitsIcEENS_9allocatorIcEEE5__repES5_EC2B8ne190102INS_18__default_init_tagESA_EEOT_OT0_
	.weak_def_can_be_hidden	__ZNSt3__117__compressed_pairINS_12basic_stringIcNS_11char_traitsIcEENS_9allocatorIcEEE5__repES5_EC2B8ne190102INS_18__default_init_tagESA_EEOT_OT0_
	.p2align	2
__ZNSt3__117__compressed_pairINS_12basic_stringIcNS_11char_traitsIcEENS_9allocatorIcEEE5__repES5_EC2B8ne190102INS_18__default_init_tagESA_EEOT_OT0_: ; @_ZNSt3__117__compressed_pairINS_12basic_stringIcNS_11char_traitsIcEENS_9allocatorIcEEE5__repES5_EC2B8ne190102INS_18__default_init_tagESA_EEOT_OT0_
	.cfi_startproc
; %bb.0:
	sub	sp, sp, #64
	stp	x29, x30, [sp, #48]             ; 16-byte Folded Spill
	add	x29, sp, #48
	.cfi_def_cfa w29, 16
	.cfi_offset w30, -8
	.cfi_offset w29, -16
	stur	x0, [x29, #-8]
	stur	x1, [x29, #-16]
	str	x2, [sp, #24]
	ldur	x0, [x29, #-8]
	str	x0, [sp, #8]                    ; 8-byte Folded Spill
	bl	__ZNSt3__122__compressed_pair_elemINS_12basic_stringIcNS_11char_traitsIcEENS_9allocatorIcEEE5__repELi0ELb0EEC2B8ne190102ENS_18__default_init_tagE
	ldr	x0, [sp, #8]                    ; 8-byte Folded Reload
	bl	__ZNSt3__122__compressed_pair_elemINS_9allocatorIcEELi1ELb1EEC2B8ne190102ENS_18__default_init_tagE
	ldr	x0, [sp, #8]                    ; 8-byte Folded Reload
	ldp	x29, x30, [sp, #48]             ; 16-byte Folded Reload
	add	sp, sp, #64
	ret
	.cfi_endproc
                                        ; -- End function
	.private_extern	__ZNSt3__122__compressed_pair_elemINS_12basic_stringIcNS_11char_traitsIcEENS_9allocatorIcEEE5__repELi0ELb0EEC2B8ne190102ENS_18__default_init_tagE ; -- Begin function _ZNSt3__122__compressed_pair_elemINS_12basic_stringIcNS_11char_traitsIcEENS_9allocatorIcEEE5__repELi0ELb0EEC2B8ne190102ENS_18__default_init_tagE
	.globl	__ZNSt3__122__compressed_pair_elemINS_12basic_stringIcNS_11char_traitsIcEENS_9allocatorIcEEE5__repELi0ELb0EEC2B8ne190102ENS_18__default_init_tagE
	.weak_def_can_be_hidden	__ZNSt3__122__compressed_pair_elemINS_12basic_stringIcNS_11char_traitsIcEENS_9allocatorIcEEE5__repELi0ELb0EEC2B8ne190102ENS_18__default_init_tagE
	.p2align	2
__ZNSt3__122__compressed_pair_elemINS_12basic_stringIcNS_11char_traitsIcEENS_9allocatorIcEEE5__repELi0ELb0EEC2B8ne190102ENS_18__default_init_tagE: ; @_ZNSt3__122__compressed_pair_elemINS_12basic_stringIcNS_11char_traitsIcEENS_9allocatorIcEEE5__repELi0ELb0EEC2B8ne190102ENS_18__default_init_tagE
	.cfi_startproc
; %bb.0:
	sub	sp, sp, #16
	.cfi_def_cfa_offset 16
	str	x0, [sp]
	ldr	x0, [sp]
	add	sp, sp, #16
	ret
	.cfi_endproc
                                        ; -- End function
	.private_extern	__ZNSt3__122__compressed_pair_elemINS_9allocatorIcEELi1ELb1EEC2B8ne190102ENS_18__default_init_tagE ; -- Begin function _ZNSt3__122__compressed_pair_elemINS_9allocatorIcEELi1ELb1EEC2B8ne190102ENS_18__default_init_tagE
	.globl	__ZNSt3__122__compressed_pair_elemINS_9allocatorIcEELi1ELb1EEC2B8ne190102ENS_18__default_init_tagE
	.weak_def_can_be_hidden	__ZNSt3__122__compressed_pair_elemINS_9allocatorIcEELi1ELb1EEC2B8ne190102ENS_18__default_init_tagE
	.p2align	2
__ZNSt3__122__compressed_pair_elemINS_9allocatorIcEELi1ELb1EEC2B8ne190102ENS_18__default_init_tagE: ; @_ZNSt3__122__compressed_pair_elemINS_9allocatorIcEELi1ELb1EEC2B8ne190102ENS_18__default_init_tagE
	.cfi_startproc
; %bb.0:
	sub	sp, sp, #48
	stp	x29, x30, [sp, #32]             ; 16-byte Folded Spill
	add	x29, sp, #32
	.cfi_def_cfa w29, 16
	.cfi_offset w30, -8
	.cfi_offset w29, -16
	str	x0, [sp, #16]
	ldr	x0, [sp, #16]
	str	x0, [sp, #8]                    ; 8-byte Folded Spill
	bl	__ZNSt3__19allocatorIcEC2B8ne190102Ev
	ldr	x0, [sp, #8]                    ; 8-byte Folded Reload
	ldp	x29, x30, [sp, #32]             ; 16-byte Folded Reload
	add	sp, sp, #48
	ret
	.cfi_endproc
                                        ; -- End function
	.private_extern	__ZNSt3__19allocatorIcEC2B8ne190102Ev ; -- Begin function _ZNSt3__19allocatorIcEC2B8ne190102Ev
	.globl	__ZNSt3__19allocatorIcEC2B8ne190102Ev
	.weak_def_can_be_hidden	__ZNSt3__19allocatorIcEC2B8ne190102Ev
	.p2align	2
__ZNSt3__19allocatorIcEC2B8ne190102Ev:  ; @_ZNSt3__19allocatorIcEC2B8ne190102Ev
	.cfi_startproc
; %bb.0:
	sub	sp, sp, #32
	stp	x29, x30, [sp, #16]             ; 16-byte Folded Spill
	add	x29, sp, #16
	.cfi_def_cfa w29, 16
	.cfi_offset w30, -8
	.cfi_offset w29, -16
	str	x0, [sp, #8]
	ldr	x0, [sp, #8]
	str	x0, [sp]                        ; 8-byte Folded Spill
	bl	__ZNSt3__116__non_trivial_ifILb1ENS_9allocatorIcEEEC2B8ne190102Ev
	ldr	x0, [sp]                        ; 8-byte Folded Reload
	ldp	x29, x30, [sp, #16]             ; 16-byte Folded Reload
	add	sp, sp, #32
	ret
	.cfi_endproc
                                        ; -- End function
	.private_extern	__ZNSt3__116__non_trivial_ifILb1ENS_9allocatorIcEEEC2B8ne190102Ev ; -- Begin function _ZNSt3__116__non_trivial_ifILb1ENS_9allocatorIcEEEC2B8ne190102Ev
	.globl	__ZNSt3__116__non_trivial_ifILb1ENS_9allocatorIcEEEC2B8ne190102Ev
	.weak_def_can_be_hidden	__ZNSt3__116__non_trivial_ifILb1ENS_9allocatorIcEEEC2B8ne190102Ev
	.p2align	2
__ZNSt3__116__non_trivial_ifILb1ENS_9allocatorIcEEEC2B8ne190102Ev: ; @_ZNSt3__116__non_trivial_ifILb1ENS_9allocatorIcEEEC2B8ne190102Ev
	.cfi_startproc
; %bb.0:
	sub	sp, sp, #16
	.cfi_def_cfa_offset 16
	str	x0, [sp, #8]
	ldr	x0, [sp, #8]
	add	sp, sp, #16
	ret
	.cfi_endproc
                                        ; -- End function
	.private_extern	__ZNSt3__112__to_addressB8ne190102IKcEEPT_S3_ ; -- Begin function _ZNSt3__112__to_addressB8ne190102IKcEEPT_S3_
	.globl	__ZNSt3__112__to_addressB8ne190102IKcEEPT_S3_
	.weak_definition	__ZNSt3__112__to_addressB8ne190102IKcEEPT_S3_
	.p2align	2
__ZNSt3__112__to_addressB8ne190102IKcEEPT_S3_: ; @_ZNSt3__112__to_addressB8ne190102IKcEEPT_S3_
	.cfi_startproc
; %bb.0:
	sub	sp, sp, #16
	.cfi_def_cfa_offset 16
	str	x0, [sp, #8]
	ldr	x0, [sp, #8]
	add	sp, sp, #16
	ret
	.cfi_endproc
                                        ; -- End function
	.private_extern	__ZNKSt3__112basic_stringIcNS_11char_traitsIcEENS_9allocatorIcEEE13__get_pointerB8ne190102Ev ; -- Begin function _ZNKSt3__112basic_stringIcNS_11char_traitsIcEENS_9allocatorIcEEE13__get_pointerB8ne190102Ev
	.globl	__ZNKSt3__112basic_stringIcNS_11char_traitsIcEENS_9allocatorIcEEE13__get_pointerB8ne190102Ev
	.weak_definition	__ZNKSt3__112basic_stringIcNS_11char_traitsIcEENS_9allocatorIcEEE13__get_pointerB8ne190102Ev
	.p2align	2
__ZNKSt3__112basic_stringIcNS_11char_traitsIcEENS_9allocatorIcEEE13__get_pointerB8ne190102Ev: ; @_ZNKSt3__112basic_stringIcNS_11char_traitsIcEENS_9allocatorIcEEE13__get_pointerB8ne190102Ev
	.cfi_startproc
; %bb.0:
	sub	sp, sp, #48
	stp	x29, x30, [sp, #32]             ; 16-byte Folded Spill
	add	x29, sp, #32
	.cfi_def_cfa w29, 16
	.cfi_offset w30, -8
	.cfi_offset w29, -16
	stur	x0, [x29, #-8]
	ldur	x0, [x29, #-8]
	str	x0, [sp, #16]                   ; 8-byte Folded Spill
	bl	__ZNKSt3__112basic_stringIcNS_11char_traitsIcEENS_9allocatorIcEEE9__is_longB8ne190102Ev
	tbz	w0, #0, LBB25_2
	b	LBB25_1
LBB25_1:
	ldr	x0, [sp, #16]                   ; 8-byte Folded Reload
	bl	__ZNKSt3__112basic_stringIcNS_11char_traitsIcEENS_9allocatorIcEEE18__get_long_pointerB8ne190102Ev
	str	x0, [sp, #8]                    ; 8-byte Folded Spill
	b	LBB25_3
LBB25_2:
	ldr	x0, [sp, #16]                   ; 8-byte Folded Reload
	bl	__ZNKSt3__112basic_stringIcNS_11char_traitsIcEENS_9allocatorIcEEE19__get_short_pointerB8ne190102Ev
	str	x0, [sp, #8]                    ; 8-byte Folded Spill
	b	LBB25_3
LBB25_3:
	ldr	x0, [sp, #8]                    ; 8-byte Folded Reload
	ldp	x29, x30, [sp, #32]             ; 16-byte Folded Reload
	add	sp, sp, #48
	ret
	.cfi_endproc
                                        ; -- End function
	.private_extern	__ZNKSt3__112basic_stringIcNS_11char_traitsIcEENS_9allocatorIcEEE9__is_longB8ne190102Ev ; -- Begin function _ZNKSt3__112basic_stringIcNS_11char_traitsIcEENS_9allocatorIcEEE9__is_longB8ne190102Ev
	.globl	__ZNKSt3__112basic_stringIcNS_11char_traitsIcEENS_9allocatorIcEEE9__is_longB8ne190102Ev
	.weak_definition	__ZNKSt3__112basic_stringIcNS_11char_traitsIcEENS_9allocatorIcEEE9__is_longB8ne190102Ev
	.p2align	2
__ZNKSt3__112basic_stringIcNS_11char_traitsIcEENS_9allocatorIcEEE9__is_longB8ne190102Ev: ; @_ZNKSt3__112basic_stringIcNS_11char_traitsIcEENS_9allocatorIcEEE9__is_longB8ne190102Ev
	.cfi_startproc
; %bb.0:
	sub	sp, sp, #32
	stp	x29, x30, [sp, #16]             ; 16-byte Folded Spill
	add	x29, sp, #16
	.cfi_def_cfa w29, 16
	.cfi_offset w30, -8
	.cfi_offset w29, -16
	str	x0, [sp, #8]
	ldr	x0, [sp, #8]
	bl	__ZNKSt3__117__compressed_pairINS_12basic_stringIcNS_11char_traitsIcEENS_9allocatorIcEEE5__repES5_E5firstB8ne190102Ev
	ldrb	w8, [x0, #23]
	lsr	w8, w8, #7
	subs	w8, w8, #0
	cset	w0, ne
	ldp	x29, x30, [sp, #16]             ; 16-byte Folded Reload
	add	sp, sp, #32
	ret
	.cfi_endproc
                                        ; -- End function
	.private_extern	__ZNKSt3__112basic_stringIcNS_11char_traitsIcEENS_9allocatorIcEEE18__get_long_pointerB8ne190102Ev ; -- Begin function _ZNKSt3__112basic_stringIcNS_11char_traitsIcEENS_9allocatorIcEEE18__get_long_pointerB8ne190102Ev
	.globl	__ZNKSt3__112basic_stringIcNS_11char_traitsIcEENS_9allocatorIcEEE18__get_long_pointerB8ne190102Ev
	.weak_definition	__ZNKSt3__112basic_stringIcNS_11char_traitsIcEENS_9allocatorIcEEE18__get_long_pointerB8ne190102Ev
	.p2align	2
__ZNKSt3__112basic_stringIcNS_11char_traitsIcEENS_9allocatorIcEEE18__get_long_pointerB8ne190102Ev: ; @_ZNKSt3__112basic_stringIcNS_11char_traitsIcEENS_9allocatorIcEEE18__get_long_pointerB8ne190102Ev
	.cfi_startproc
; %bb.0:
	sub	sp, sp, #32
	stp	x29, x30, [sp, #16]             ; 16-byte Folded Spill
	add	x29, sp, #16
	.cfi_def_cfa w29, 16
	.cfi_offset w30, -8
	.cfi_offset w29, -16
	str	x0, [sp, #8]
	ldr	x0, [sp, #8]
	bl	__ZNKSt3__117__compressed_pairINS_12basic_stringIcNS_11char_traitsIcEENS_9allocatorIcEEE5__repES5_E5firstB8ne190102Ev
	ldr	x0, [x0]
	ldp	x29, x30, [sp, #16]             ; 16-byte Folded Reload
	add	sp, sp, #32
	ret
	.cfi_endproc
                                        ; -- End function
	.private_extern	__ZNKSt3__112basic_stringIcNS_11char_traitsIcEENS_9allocatorIcEEE19__get_short_pointerB8ne190102Ev ; -- Begin function _ZNKSt3__112basic_stringIcNS_11char_traitsIcEENS_9allocatorIcEEE19__get_short_pointerB8ne190102Ev
	.globl	__ZNKSt3__112basic_stringIcNS_11char_traitsIcEENS_9allocatorIcEEE19__get_short_pointerB8ne190102Ev
	.weak_definition	__ZNKSt3__112basic_stringIcNS_11char_traitsIcEENS_9allocatorIcEEE19__get_short_pointerB8ne190102Ev
	.p2align	2
__ZNKSt3__112basic_stringIcNS_11char_traitsIcEENS_9allocatorIcEEE19__get_short_pointerB8ne190102Ev: ; @_ZNKSt3__112basic_stringIcNS_11char_traitsIcEENS_9allocatorIcEEE19__get_short_pointerB8ne190102Ev
	.cfi_startproc
; %bb.0:
	sub	sp, sp, #32
	stp	x29, x30, [sp, #16]             ; 16-byte Folded Spill
	add	x29, sp, #16
	.cfi_def_cfa w29, 16
	.cfi_offset w30, -8
	.cfi_offset w29, -16
	str	x0, [sp, #8]
	ldr	x0, [sp, #8]
	bl	__ZNKSt3__117__compressed_pairINS_12basic_stringIcNS_11char_traitsIcEENS_9allocatorIcEEE5__repES5_E5firstB8ne190102Ev
	bl	__ZNSt3__114pointer_traitsIPKcE10pointer_toB8ne190102ERS1_
	ldp	x29, x30, [sp, #16]             ; 16-byte Folded Reload
	add	sp, sp, #32
	ret
	.cfi_endproc
                                        ; -- End function
	.private_extern	__ZNKSt3__117__compressed_pairINS_12basic_stringIcNS_11char_traitsIcEENS_9allocatorIcEEE5__repES5_E5firstB8ne190102Ev ; -- Begin function _ZNKSt3__117__compressed_pairINS_12basic_stringIcNS_11char_traitsIcEENS_9allocatorIcEEE5__repES5_E5firstB8ne190102Ev
	.globl	__ZNKSt3__117__compressed_pairINS_12basic_stringIcNS_11char_traitsIcEENS_9allocatorIcEEE5__repES5_E5firstB8ne190102Ev
	.weak_definition	__ZNKSt3__117__compressed_pairINS_12basic_stringIcNS_11char_traitsIcEENS_9allocatorIcEEE5__repES5_E5firstB8ne190102Ev
	.p2align	2
__ZNKSt3__117__compressed_pairINS_12basic_stringIcNS_11char_traitsIcEENS_9allocatorIcEEE5__repES5_E5firstB8ne190102Ev: ; @_ZNKSt3__117__compressed_pairINS_12basic_stringIcNS_11char_traitsIcEENS_9allocatorIcEEE5__repES5_E5firstB8ne190102Ev
	.cfi_startproc
; %bb.0:
	sub	sp, sp, #32
	stp	x29, x30, [sp, #16]             ; 16-byte Folded Spill
	add	x29, sp, #16
	.cfi_def_cfa w29, 16
	.cfi_offset w30, -8
	.cfi_offset w29, -16
	str	x0, [sp, #8]
	ldr	x0, [sp, #8]
	bl	__ZNKSt3__122__compressed_pair_elemINS_12basic_stringIcNS_11char_traitsIcEENS_9allocatorIcEEE5__repELi0ELb0EE5__getB8ne190102Ev
	ldp	x29, x30, [sp, #16]             ; 16-byte Folded Reload
	add	sp, sp, #32
	ret
	.cfi_endproc
                                        ; -- End function
	.private_extern	__ZNKSt3__122__compressed_pair_elemINS_12basic_stringIcNS_11char_traitsIcEENS_9allocatorIcEEE5__repELi0ELb0EE5__getB8ne190102Ev ; -- Begin function _ZNKSt3__122__compressed_pair_elemINS_12basic_stringIcNS_11char_traitsIcEENS_9allocatorIcEEE5__repELi0ELb0EE5__getB8ne190102Ev
	.globl	__ZNKSt3__122__compressed_pair_elemINS_12basic_stringIcNS_11char_traitsIcEENS_9allocatorIcEEE5__repELi0ELb0EE5__getB8ne190102Ev
	.weak_definition	__ZNKSt3__122__compressed_pair_elemINS_12basic_stringIcNS_11char_traitsIcEENS_9allocatorIcEEE5__repELi0ELb0EE5__getB8ne190102Ev
	.p2align	2
__ZNKSt3__122__compressed_pair_elemINS_12basic_stringIcNS_11char_traitsIcEENS_9allocatorIcEEE5__repELi0ELb0EE5__getB8ne190102Ev: ; @_ZNKSt3__122__compressed_pair_elemINS_12basic_stringIcNS_11char_traitsIcEENS_9allocatorIcEEE5__repELi0ELb0EE5__getB8ne190102Ev
	.cfi_startproc
; %bb.0:
	sub	sp, sp, #16
	.cfi_def_cfa_offset 16
	str	x0, [sp, #8]
	ldr	x0, [sp, #8]
	add	sp, sp, #16
	ret
	.cfi_endproc
                                        ; -- End function
	.private_extern	__ZNSt3__114pointer_traitsIPKcE10pointer_toB8ne190102ERS1_ ; -- Begin function _ZNSt3__114pointer_traitsIPKcE10pointer_toB8ne190102ERS1_
	.globl	__ZNSt3__114pointer_traitsIPKcE10pointer_toB8ne190102ERS1_
	.weak_definition	__ZNSt3__114pointer_traitsIPKcE10pointer_toB8ne190102ERS1_
	.p2align	2
__ZNSt3__114pointer_traitsIPKcE10pointer_toB8ne190102ERS1_: ; @_ZNSt3__114pointer_traitsIPKcE10pointer_toB8ne190102ERS1_
	.cfi_startproc
; %bb.0:
	sub	sp, sp, #16
	.cfi_def_cfa_offset 16
	str	x0, [sp, #8]
	ldr	x0, [sp, #8]
	add	sp, sp, #16
	ret
	.cfi_endproc
                                        ; -- End function
	.private_extern	__ZNSt3__119ostreambuf_iteratorIcNS_11char_traitsIcEEEC2B8ne190102ERNS_13basic_ostreamIcS2_EE ; -- Begin function _ZNSt3__119ostreambuf_iteratorIcNS_11char_traitsIcEEEC2B8ne190102ERNS_13basic_ostreamIcS2_EE
	.globl	__ZNSt3__119ostreambuf_iteratorIcNS_11char_traitsIcEEEC2B8ne190102ERNS_13basic_ostreamIcS2_EE
	.weak_def_can_be_hidden	__ZNSt3__119ostreambuf_iteratorIcNS_11char_traitsIcEEEC2B8ne190102ERNS_13basic_ostreamIcS2_EE
	.p2align	2
__ZNSt3__119ostreambuf_iteratorIcNS_11char_traitsIcEEEC2B8ne190102ERNS_13basic_ostreamIcS2_EE: ; @_ZNSt3__119ostreambuf_iteratorIcNS_11char_traitsIcEEEC2B8ne190102ERNS_13basic_ostreamIcS2_EE
Lfunc_begin2:
	.cfi_startproc
	.cfi_personality 155, ___gxx_personality_v0
	.cfi_lsda 16, Lexception2
; %bb.0:
	sub	sp, sp, #48
	stp	x29, x30, [sp, #32]             ; 16-byte Folded Spill
	add	x29, sp, #32
	.cfi_def_cfa w29, 16
	.cfi_offset w30, -8
	.cfi_offset w29, -16
	stur	x0, [x29, #-8]
	str	x1, [sp, #16]
	ldur	x8, [x29, #-8]
	str	x8, [sp]                        ; 8-byte Folded Spill
	ldr	x8, [sp, #16]
	ldr	x9, [x8]
	ldur	x9, [x9, #-24]
Ltmp33:
	add	x0, x8, x9
	bl	__ZNKSt3__19basic_iosIcNS_11char_traitsIcEEE5rdbufB8ne190102Ev
	str	x0, [sp, #8]                    ; 8-byte Folded Spill
Ltmp34:
	b	LBB32_1
LBB32_1:
	ldr	x0, [sp]                        ; 8-byte Folded Reload
	ldr	x8, [sp, #8]                    ; 8-byte Folded Reload
	str	x8, [x0]
	ldp	x29, x30, [sp, #32]             ; 16-byte Folded Reload
	add	sp, sp, #48
	ret
LBB32_2:
Ltmp35:
	bl	___clang_call_terminate
Lfunc_end2:
	.cfi_endproc
	.section	__TEXT,__gcc_except_tab
	.p2align	2, 0x0
GCC_except_table32:
Lexception2:
	.byte	255                             ; @LPStart Encoding = omit
	.byte	155                             ; @TType Encoding = indirect pcrel sdata4
	.uleb128 Lttbase1-Lttbaseref1
Lttbaseref1:
	.byte	1                               ; Call site Encoding = uleb128
	.uleb128 Lcst_end2-Lcst_begin2
Lcst_begin2:
	.uleb128 Ltmp33-Lfunc_begin2            ; >> Call Site 1 <<
	.uleb128 Ltmp34-Ltmp33                  ;   Call between Ltmp33 and Ltmp34
	.uleb128 Ltmp35-Lfunc_begin2            ;     jumps to Ltmp35
	.byte	1                               ;   On action: 1
Lcst_end2:
	.byte	1                               ; >> Action Record 1 <<
                                        ;   Catch TypeInfo 1
	.byte	0                               ;   No further actions
	.p2align	2, 0x0
                                        ; >> Catch TypeInfos <<
	.long	0                               ; TypeInfo 1
Lttbase1:
	.p2align	2, 0x0
                                        ; -- End function
	.section	__TEXT,__text,regular,pure_instructions
	.private_extern	__ZNKSt3__19basic_iosIcNS_11char_traitsIcEEE5rdbufB8ne190102Ev ; -- Begin function _ZNKSt3__19basic_iosIcNS_11char_traitsIcEEE5rdbufB8ne190102Ev
	.globl	__ZNKSt3__19basic_iosIcNS_11char_traitsIcEEE5rdbufB8ne190102Ev
	.weak_definition	__ZNKSt3__19basic_iosIcNS_11char_traitsIcEEE5rdbufB8ne190102Ev
	.p2align	2
__ZNKSt3__19basic_iosIcNS_11char_traitsIcEEE5rdbufB8ne190102Ev: ; @_ZNKSt3__19basic_iosIcNS_11char_traitsIcEEE5rdbufB8ne190102Ev
	.cfi_startproc
; %bb.0:
	sub	sp, sp, #32
	stp	x29, x30, [sp, #16]             ; 16-byte Folded Spill
	add	x29, sp, #16
	.cfi_def_cfa w29, 16
	.cfi_offset w30, -8
	.cfi_offset w29, -16
	str	x0, [sp, #8]
	ldr	x0, [sp, #8]
	bl	__ZNKSt3__18ios_base5rdbufB8ne190102Ev
	ldp	x29, x30, [sp, #16]             ; 16-byte Folded Reload
	add	sp, sp, #32
	ret
	.cfi_endproc
                                        ; -- End function
	.private_extern	__ZNKSt3__18ios_base5rdbufB8ne190102Ev ; -- Begin function _ZNKSt3__18ios_base5rdbufB8ne190102Ev
	.globl	__ZNKSt3__18ios_base5rdbufB8ne190102Ev
	.weak_definition	__ZNKSt3__18ios_base5rdbufB8ne190102Ev
	.p2align	2
__ZNKSt3__18ios_base5rdbufB8ne190102Ev: ; @_ZNKSt3__18ios_base5rdbufB8ne190102Ev
	.cfi_startproc
; %bb.0:
	sub	sp, sp, #16
	.cfi_def_cfa_offset 16
	str	x0, [sp, #8]
	ldr	x8, [sp, #8]
	ldr	x0, [x8, #40]
	add	sp, sp, #16
	ret
	.cfi_endproc
                                        ; -- End function
	.private_extern	__ZNKSt3__118_SentinelValueFillINS_11char_traitsIcEEE8__is_setB8ne190102Ev ; -- Begin function _ZNKSt3__118_SentinelValueFillINS_11char_traitsIcEEE8__is_setB8ne190102Ev
	.globl	__ZNKSt3__118_SentinelValueFillINS_11char_traitsIcEEE8__is_setB8ne190102Ev
	.weak_definition	__ZNKSt3__118_SentinelValueFillINS_11char_traitsIcEEE8__is_setB8ne190102Ev
	.p2align	2
__ZNKSt3__118_SentinelValueFillINS_11char_traitsIcEEE8__is_setB8ne190102Ev: ; @_ZNKSt3__118_SentinelValueFillINS_11char_traitsIcEEE8__is_setB8ne190102Ev
	.cfi_startproc
; %bb.0:
	sub	sp, sp, #32
	stp	x29, x30, [sp, #16]             ; 16-byte Folded Spill
	add	x29, sp, #16
	.cfi_def_cfa w29, 16
	.cfi_offset w30, -8
	.cfi_offset w29, -16
	str	x0, [sp, #8]
	ldr	x8, [sp, #8]
	ldr	w8, [x8]
	str	w8, [sp, #4]                    ; 4-byte Folded Spill
	bl	__ZNSt3__111char_traitsIcE3eofB8ne190102Ev
	ldr	w8, [sp, #4]                    ; 4-byte Folded Reload
	subs	w8, w8, w0
	cset	w0, ne
	ldp	x29, x30, [sp, #16]             ; 16-byte Folded Reload
	add	sp, sp, #32
	ret
	.cfi_endproc
                                        ; -- End function
	.private_extern	__ZNKSt3__19basic_iosIcNS_11char_traitsIcEEE5widenB8ne190102Ec ; -- Begin function _ZNKSt3__19basic_iosIcNS_11char_traitsIcEEE5widenB8ne190102Ec
	.globl	__ZNKSt3__19basic_iosIcNS_11char_traitsIcEEE5widenB8ne190102Ec
	.weak_definition	__ZNKSt3__19basic_iosIcNS_11char_traitsIcEEE5widenB8ne190102Ec
	.p2align	2
__ZNKSt3__19basic_iosIcNS_11char_traitsIcEEE5widenB8ne190102Ec: ; @_ZNKSt3__19basic_iosIcNS_11char_traitsIcEEE5widenB8ne190102Ec
Lfunc_begin3:
	.cfi_startproc
	.cfi_personality 155, ___gxx_personality_v0
	.cfi_lsda 16, Lexception3
; %bb.0:
	sub	sp, sp, #80
	stp	x29, x30, [sp, #64]             ; 16-byte Folded Spill
	add	x29, sp, #64
	.cfi_def_cfa w29, 16
	.cfi_offset w30, -8
	.cfi_offset w29, -16
	stur	x0, [x29, #-8]
	sturb	w1, [x29, #-9]
	ldur	x0, [x29, #-8]
	sub	x8, x29, #24
	str	x8, [sp, #8]                    ; 8-byte Folded Spill
	bl	__ZNKSt3__18ios_base6getlocEv
	ldr	x0, [sp, #8]                    ; 8-byte Folded Reload
Ltmp37:
	bl	__ZNSt3__19use_facetB8ne190102INS_5ctypeIcEEEERKT_RKNS_6localeE
	str	x0, [sp, #16]                   ; 8-byte Folded Spill
Ltmp38:
	b	LBB36_1
LBB36_1:
	ldr	x0, [sp, #16]                   ; 8-byte Folded Reload
	ldursb	w1, [x29, #-9]
Ltmp39:
	bl	__ZNKSt3__15ctypeIcE5widenB8ne190102Ec
	str	w0, [sp, #4]                    ; 4-byte Folded Spill
Ltmp40:
	b	LBB36_2
LBB36_2:
	sub	x0, x29, #24
	bl	__ZNSt3__16localeD1Ev
	ldr	w0, [sp, #4]                    ; 4-byte Folded Reload
	ldp	x29, x30, [sp, #64]             ; 16-byte Folded Reload
	add	sp, sp, #80
	ret
LBB36_3:
Ltmp41:
	str	x0, [sp, #32]
	mov	x8, x1
	str	w8, [sp, #28]
	sub	x0, x29, #24
	bl	__ZNSt3__16localeD1Ev
	b	LBB36_4
LBB36_4:
	ldr	x0, [sp, #32]
	bl	__Unwind_Resume
Lfunc_end3:
	.cfi_endproc
	.section	__TEXT,__gcc_except_tab
	.p2align	2, 0x0
GCC_except_table36:
Lexception3:
	.byte	255                             ; @LPStart Encoding = omit
	.byte	255                             ; @TType Encoding = omit
	.byte	1                               ; Call site Encoding = uleb128
	.uleb128 Lcst_end3-Lcst_begin3
Lcst_begin3:
	.uleb128 Lfunc_begin3-Lfunc_begin3      ; >> Call Site 1 <<
	.uleb128 Ltmp37-Lfunc_begin3            ;   Call between Lfunc_begin3 and Ltmp37
	.byte	0                               ;     has no landing pad
	.byte	0                               ;   On action: cleanup
	.uleb128 Ltmp37-Lfunc_begin3            ; >> Call Site 2 <<
	.uleb128 Ltmp40-Ltmp37                  ;   Call between Ltmp37 and Ltmp40
	.uleb128 Ltmp41-Lfunc_begin3            ;     jumps to Ltmp41
	.byte	0                               ;   On action: cleanup
	.uleb128 Ltmp40-Lfunc_begin3            ; >> Call Site 3 <<
	.uleb128 Lfunc_end3-Ltmp40              ;   Call between Ltmp40 and Lfunc_end3
	.byte	0                               ;     has no landing pad
	.byte	0                               ;   On action: cleanup
Lcst_end3:
	.p2align	2, 0x0
                                        ; -- End function
	.section	__TEXT,__text,regular,pure_instructions
	.private_extern	__ZNSt3__118_SentinelValueFillINS_11char_traitsIcEEEaSB8ne190102Ei ; -- Begin function _ZNSt3__118_SentinelValueFillINS_11char_traitsIcEEEaSB8ne190102Ei
	.globl	__ZNSt3__118_SentinelValueFillINS_11char_traitsIcEEEaSB8ne190102Ei
	.weak_definition	__ZNSt3__118_SentinelValueFillINS_11char_traitsIcEEEaSB8ne190102Ei
	.p2align	2
__ZNSt3__118_SentinelValueFillINS_11char_traitsIcEEEaSB8ne190102Ei: ; @_ZNSt3__118_SentinelValueFillINS_11char_traitsIcEEEaSB8ne190102Ei
	.cfi_startproc
; %bb.0:
	sub	sp, sp, #16
	.cfi_def_cfa_offset 16
	str	x0, [sp, #8]
	str	w1, [sp, #4]
	ldr	x0, [sp, #8]
	ldr	w8, [sp, #4]
	str	w8, [x0]
	add	sp, sp, #16
	ret
	.cfi_endproc
                                        ; -- End function
	.private_extern	__ZNKSt3__118_SentinelValueFillINS_11char_traitsIcEEE5__getB8ne190102Ev ; -- Begin function _ZNKSt3__118_SentinelValueFillINS_11char_traitsIcEEE5__getB8ne190102Ev
	.globl	__ZNKSt3__118_SentinelValueFillINS_11char_traitsIcEEE5__getB8ne190102Ev
	.weak_definition	__ZNKSt3__118_SentinelValueFillINS_11char_traitsIcEEE5__getB8ne190102Ev
	.p2align	2
__ZNKSt3__118_SentinelValueFillINS_11char_traitsIcEEE5__getB8ne190102Ev: ; @_ZNKSt3__118_SentinelValueFillINS_11char_traitsIcEEE5__getB8ne190102Ev
	.cfi_startproc
; %bb.0:
	sub	sp, sp, #16
	.cfi_def_cfa_offset 16
	str	x0, [sp, #8]
	ldr	x8, [sp, #8]
	ldr	w0, [x8]
	add	sp, sp, #16
	ret
	.cfi_endproc
                                        ; -- End function
	.private_extern	__ZNSt3__111char_traitsIcE3eofB8ne190102Ev ; -- Begin function _ZNSt3__111char_traitsIcE3eofB8ne190102Ev
	.globl	__ZNSt3__111char_traitsIcE3eofB8ne190102Ev
	.weak_definition	__ZNSt3__111char_traitsIcE3eofB8ne190102Ev
	.p2align	2
__ZNSt3__111char_traitsIcE3eofB8ne190102Ev: ; @_ZNSt3__111char_traitsIcE3eofB8ne190102Ev
	.cfi_startproc
; %bb.0:
	mov	w0, #-1                         ; =0xffffffff
	ret
	.cfi_endproc
                                        ; -- End function
	.private_extern	__ZNSt3__19use_facetB8ne190102INS_5ctypeIcEEEERKT_RKNS_6localeE ; -- Begin function _ZNSt3__19use_facetB8ne190102INS_5ctypeIcEEEERKT_RKNS_6localeE
	.globl	__ZNSt3__19use_facetB8ne190102INS_5ctypeIcEEEERKT_RKNS_6localeE
	.weak_definition	__ZNSt3__19use_facetB8ne190102INS_5ctypeIcEEEERKT_RKNS_6localeE
	.p2align	2
__ZNSt3__19use_facetB8ne190102INS_5ctypeIcEEEERKT_RKNS_6localeE: ; @_ZNSt3__19use_facetB8ne190102INS_5ctypeIcEEEERKT_RKNS_6localeE
	.cfi_startproc
; %bb.0:
	sub	sp, sp, #32
	stp	x29, x30, [sp, #16]             ; 16-byte Folded Spill
	add	x29, sp, #16
	.cfi_def_cfa w29, 16
	.cfi_offset w30, -8
	.cfi_offset w29, -16
	str	x0, [sp, #8]
	ldr	x0, [sp, #8]
	adrp	x1, __ZNSt3__15ctypeIcE2idE@GOTPAGE
	ldr	x1, [x1, __ZNSt3__15ctypeIcE2idE@GOTPAGEOFF]
	bl	__ZNKSt3__16locale9use_facetERNS0_2idE
	ldp	x29, x30, [sp, #16]             ; 16-byte Folded Reload
	add	sp, sp, #32
	ret
	.cfi_endproc
                                        ; -- End function
	.private_extern	__ZNKSt3__15ctypeIcE5widenB8ne190102Ec ; -- Begin function _ZNKSt3__15ctypeIcE5widenB8ne190102Ec
	.globl	__ZNKSt3__15ctypeIcE5widenB8ne190102Ec
	.weak_definition	__ZNKSt3__15ctypeIcE5widenB8ne190102Ec
	.p2align	2
__ZNKSt3__15ctypeIcE5widenB8ne190102Ec: ; @_ZNKSt3__15ctypeIcE5widenB8ne190102Ec
	.cfi_startproc
; %bb.0:
	sub	sp, sp, #32
	stp	x29, x30, [sp, #16]             ; 16-byte Folded Spill
	add	x29, sp, #16
	.cfi_def_cfa w29, 16
	.cfi_offset w30, -8
	.cfi_offset w29, -16
	str	x0, [sp, #8]
	strb	w1, [sp, #7]
	ldr	x0, [sp, #8]
	ldrsb	w1, [sp, #7]
	ldr	x8, [x0]
	ldr	x8, [x8, #56]
	blr	x8
	ldp	x29, x30, [sp, #16]             ; 16-byte Folded Reload
	add	sp, sp, #32
	ret
	.cfi_endproc
                                        ; -- End function
	.private_extern	__ZNSt3__18ios_base8setstateB8ne190102Ej ; -- Begin function _ZNSt3__18ios_base8setstateB8ne190102Ej
	.globl	__ZNSt3__18ios_base8setstateB8ne190102Ej
	.weak_definition	__ZNSt3__18ios_base8setstateB8ne190102Ej
	.p2align	2
__ZNSt3__18ios_base8setstateB8ne190102Ej: ; @_ZNSt3__18ios_base8setstateB8ne190102Ej
	.cfi_startproc
; %bb.0:
	sub	sp, sp, #32
	stp	x29, x30, [sp, #16]             ; 16-byte Folded Spill
	add	x29, sp, #16
	.cfi_def_cfa w29, 16
	.cfi_offset w30, -8
	.cfi_offset w29, -16
	str	x0, [sp, #8]
	str	w1, [sp, #4]
	ldr	x0, [sp, #8]
	ldr	w8, [x0, #32]
	ldr	w9, [sp, #4]
	orr	w1, w8, w9
	bl	__ZNSt3__18ios_base5clearEj
	ldp	x29, x30, [sp, #16]             ; 16-byte Folded Reload
	add	sp, sp, #32
	ret
	.cfi_endproc
                                        ; -- End function
	.private_extern	__ZNSt3__118__constexpr_strlenB8ne190102IcEEmPKT_ ; -- Begin function _ZNSt3__118__constexpr_strlenB8ne190102IcEEmPKT_
	.globl	__ZNSt3__118__constexpr_strlenB8ne190102IcEEmPKT_
	.weak_definition	__ZNSt3__118__constexpr_strlenB8ne190102IcEEmPKT_
	.p2align	2
__ZNSt3__118__constexpr_strlenB8ne190102IcEEmPKT_: ; @_ZNSt3__118__constexpr_strlenB8ne190102IcEEmPKT_
	.cfi_startproc
; %bb.0:
	sub	sp, sp, #32
	stp	x29, x30, [sp, #16]             ; 16-byte Folded Spill
	add	x29, sp, #16
	.cfi_def_cfa w29, 16
	.cfi_offset w30, -8
	.cfi_offset w29, -16
	str	x0, [sp, #8]
	ldr	x0, [sp, #8]
	bl	_strlen
	ldp	x29, x30, [sp, #16]             ; 16-byte Folded Reload
	add	sp, sp, #32
	ret
	.cfi_endproc
                                        ; -- End function
	.section	__TEXT,__cstring,cstring_literals
l_.str:                                 ; @.str
	.asciz	"Enter the radius: "

l_.str.1:                               ; @.str.1
	.asciz	"The area of the circle is "

.subsections_via_symbols
